; Function Attrs: mustprogress uwtable
define void @_ZN3gmx20InMemoryDeserializerC2ENS_8ArrayRefIKcEEbNS_18EndianSwapBehaviorE(ptr nocapture noundef nonnull writeonly align 8 dereferenceable(16) %0, ptr %1, ptr %2, i1 noundef zeroext %3, i32 noundef %4) unnamed_addr #1 align 2 personality ptr @__gxx_personality_v0 {
  store ptr getelementptr inbounds inrange(-16, 160) ({ [22 x ptr] }, ptr @_ZTVN3gmx20InMemoryDeserializerE, i64 0, i32 0, i64 2), ptr %0, align 8
  %6 = tail call noalias noundef nonnull dereferenceable(40) ptr @_Znwm(i64 noundef 40) #16
  %7 = ptrtoint ptr %2 to i64
  %8 = ptrtoint ptr %1 to i64
  %9 = sub i64 %7, %8
  %10 = getelementptr inbounds i8, ptr %1, i64 %9
  %11 = zext i1 %3 to i8
  store ptr %1, ptr %6, align 8
  %12 = getelementptr inbounds i8, ptr %6, i64 8
  store ptr %10, ptr %12, align 8
  %13 = getelementptr inbounds i8, ptr %6, i64 16
  store i8 %11, ptr %13, align 8
  %14 = getelementptr inbounds i8, ptr %6, i64 24
  store i64 0, ptr %14, align 8
  switch i32 %4, label %16 [
    i32 2, label %17
    i32 3, label %15
  ]

15:                                               ; preds = %5
  br label %17

16:                                               ; preds = %5
  br label %17

17:                                               ; preds = %16, %15, %5
  %.0.i.i = phi i32 [ 1, %15 ], [ %4, %16 ], [ 0, %5 ]
  %18 = getelementptr inbounds i8, ptr %6, i64 32
  store i32 %.0.i.i, ptr %18, align 8
  %19 = getelementptr inbounds i8, ptr %0, i64 8
  store ptr %6, ptr %19, align 8
  ret void
}